target datalayout = "e-m:e-p270:32:32-p271:32:32-p272:64:64-i64:64-i128:128-f80:128-n8:16:32:64-S128"
target triple = "x86_64-pc-linux-gnu"

@proto_register_ssyncp.ett = internal global [2 x ptr] [ptr @ett_ssyncp, ptr @ett_ssyncp_decrypted], align 16
@.str.39 = private unnamed_addr constant [31 x i8] c"State Synchronization Protocol\00", align 1
@.str.40 = private unnamed_addr constant [7 x i8] c"SSyncP\00", align 1
@.str.41 = private unnamed_addr constant [7 x i8] c"ssyncp\00", align 1
@proto_ssyncp = internal global i32 0, align 4
@ssyncp_handle = internal global ptr null, align 8
@.str.42 = private unnamed_addr constant [4 x i8] c"key\00", align 1
@.str.43 = private unnamed_addr constant [16 x i8] c"ssyncp MOSH_KEY\00", align 1
@.str.44 = private unnamed_addr constant [66 x i8] c"MOSH_KEY AES key (from mosh-{client,server} environment variable)\00", align 1
@pref_ssyncp_key = internal global ptr null, align 8

; Function Attrs: null_pointer_is_valid sspstrong uwtable
define hidden void @proto_register_ssyncp() #0 {
  %1 = alloca ptr, align 8
  %2 = alloca ptr, align 8
  %3 = call i32 @proto_register_protocol(ptr noundef @.str.39, ptr noundef @.str.40, ptr noundef @.str.41)
  store i32 %3, ptr @proto_ssyncp, align 4
  %4 = load i32, ptr @proto_ssyncp, align 4
  %5 = call ptr @register_dissector(ptr noundef @.str.41, ptr noundef @dissect_ssyncp, i32 noundef %4)
  store ptr %5, ptr @ssyncp_handle, align 8
  %6 = load i32, ptr @proto_ssyncp, align 4
  call void @proto_register_field_array(i32 noundef %6, ptr noundef @proto_register_ssyncp.hf, i32 noundef 11)
  call void @proto_register_subtree_array(ptr noundef @proto_register_ssyncp.ett, i32 noundef 2)
  call void @llvm.lifetime.start.p0(i64 8, ptr %1) #10
  %7 = load i32, ptr @proto_ssyncp, align 4
  %8 = call ptr @expert_register_protocol(i32 noundef %7)
  store ptr %8, ptr %1, align 8
  %9 = load ptr, ptr %1, align 8
  call void @expert_register_field_array(ptr noundef %9, ptr noundef @proto_register_ssyncp.ei, i32 noundef 2)
  call void @llvm.lifetime.start.p0(i64 8, ptr %2) #10
  %10 = load i32, ptr @proto_ssyncp, align 4
  %11 = call ptr @prefs_register_protocol(i32 noundef %10, ptr noundef @proto_reg_handoff_ssyncp)
  store ptr %11, ptr %2, align 8
  %12 = load ptr, ptr %2, align 8
  call void @prefs_register_string_preference(ptr noundef %12, ptr noundef @.str.42, ptr noundef @.str.43, ptr noundef @.str.44, ptr noundef @pref_ssyncp_key)
  call void @llvm.lifetime.end.p0(i64 8, ptr %2) #10
  call void @llvm.lifetime.end.p0(i64 8, ptr %1) #10
  ret void
}