; Function Attrs: null_pointer_is_valid sspstrong uwtable
define hidden void @proto_register_ssyncp() local_unnamed_addr #0 {
  %1 = tail call i32 @proto_register_protocol(ptr noundef nonnull @.str.39, ptr noundef nonnull @.str.40, ptr noundef nonnull @.str.41)
  store i32 %1, ptr @proto_ssyncp, align 4
  %2 = tail call ptr @register_dissector(ptr noundef nonnull @.str.41, ptr noundef nonnull @dissect_ssyncp, i32 noundef %1)
  store ptr %2, ptr @ssyncp_handle, align 8
  %3 = load i32, ptr @proto_ssyncp, align 4
  tail call void @proto_register_field_array(i32 noundef %3, ptr noundef nonnull @proto_register_ssyncp.hf, i32 noundef 11)
  tail call void @proto_register_subtree_array(ptr noundef nonnull @proto_register_ssyncp.ett, i32 noundef 2)
  %4 = load i32, ptr @proto_ssyncp, align 4
  %5 = tail call ptr @expert_register_protocol(i32 noundef %4)
  tail call void @expert_register_field_array(ptr noundef %5, ptr noundef nonnull @proto_register_ssyncp.ei, i32 noundef 2)
  %6 = load i32, ptr @proto_ssyncp, align 4
  %7 = tail call ptr @prefs_register_protocol(i32 noundef %6, ptr noundef nonnull @proto_reg_handoff_ssyncp)
  tail call void @prefs_register_string_preference(ptr noundef %7, ptr noundef nonnull @.str.42, ptr noundef nonnull @.str.43, ptr noundef nonnull @.str.44, ptr noundef nonnull @pref_ssyncp_key)
  ret void
}